target datalayout = "e-m:e-p270:32:32-p271:32:32-p272:64:64-i64:64-i128:128-f80:128-n8:16:32:64-S128"
target triple = "x86_64-pc-linux-gnu"

%struct.nwk_key_entry_s = type { [16 x i8], ptr, ptr, i8, i8, i8 }

@nwk_key_storage = internal global [64 x %struct.nwk_key_entry_s] zeroinitializer, align 16

; Function Attrs: nounwind null_pointer_is_valid sspstrong uwtable
define internal ptr @nwk_key_storage_get_entry_by_key(ptr noundef %0, i1 noundef zeroext %1) #0 {
  %3 = alloca ptr, align 8
  %4 = alloca i8, align 1
  %5 = alloca ptr, align 8
  %6 = alloca i32, align 4
  store ptr %0, ptr %3, align 8
  %7 = zext i1 %1 to i8
  store i8 %7, ptr %4, align 1
  call void @llvm.lifetime.start.p0(i64 8, ptr %5) #9
  store ptr null, ptr %5, align 8
  call void @llvm.lifetime.start.p0(i64 4, ptr %6) #9
  store i32 0, ptr %6, align 4
  br label %8

8:                                                ; preds = %43, %2
  %9 = load i32, ptr %6, align 4
  %10 = icmp slt i32 %9, 64
  br i1 %10, label %11, label %46

11:                                               ; preds = %8
  %12 = load i32, ptr %6, align 4
  %13 = sext i32 %12 to i64
  %14 = getelementptr [64 x %struct.nwk_key_entry_s], ptr @nwk_key_storage, i64 0, i64 %13
  %15 = getelementptr inbounds nuw %struct.nwk_key_entry_s, ptr %14, i32 0, i32 4
  %16 = load i8, ptr %15, align 1, !range !6, !noundef !7
  %17 = trunc i8 %16 to i1
  br i1 %17, label %18, label %43

18:                                               ; preds = %11
  %19 = load i32, ptr %6, align 4
  %20 = sext i32 %19 to i64
  %21 = getelementptr [64 x %struct.nwk_key_entry_s], ptr @nwk_key_storage, i64 0, i64 %20
  %22 = getelementptr inbounds nuw %struct.nwk_key_entry_s, ptr %21, i32 0, i32 3
  %23 = load i8, ptr %22, align 8, !range !6, !noundef !7
  %24 = trunc i8 %23 to i1
  %25 = zext i1 %24 to i32
  %26 = load i8, ptr %4, align 1, !range !6, !noundef !7
  %27 = trunc i8 %26 to i1
  %28 = zext i1 %27 to i32
  %29 = icmp eq i32 %25, %28
  br i1 %29, label %30, label %43

30:                                               ; preds = %18
  %31 = load i32, ptr %6, align 4
  %32 = sext i32 %31 to i64
  %33 = getelementptr [64 x %struct.nwk_key_entry_s], ptr @nwk_key_storage, i64 0, i64 %32
  %34 = getelementptr inbounds nuw %struct.nwk_key_entry_s, ptr %33, i32 0, i32 0
  %35 = getelementptr inbounds [16 x i8], ptr %34, i64 0, i64 0
  %36 = load ptr, ptr %3, align 8
  %37 = call i32 @memcmp(ptr noundef %35, ptr noundef %36, i64 noundef 16) #10
  %38 = icmp eq i32 %37, 0
  br i1 %38, label %39, label %43

39:                                               ; preds = %30
  %40 = load i32, ptr %6, align 4
  %41 = sext i32 %40 to i64
  %42 = getelementptr %struct.nwk_key_entry_s, ptr @nwk_key_storage, i64 %41
  store ptr %42, ptr %5, align 8
  br label %46

43:                                               ; preds = %30, %18, %11
  %44 = load i32, ptr %6, align 4
  %45 = add i32 %44, 1
  store i32 %45, ptr %6, align 4
  br label %8, !llvm.loop !15

46:                                               ; preds = %39, %8
  %47 = load ptr, ptr %5, align 8
  call void @llvm.lifetime.end.p0(i64 4, ptr %6) #9
  call void @llvm.lifetime.end.p0(i64 8, ptr %5) #9
  ret ptr %47
}

; Function Attrs: null_pointer_is_valid sspstrong uwtable
define hidden void @nwk_key_storage_release_entry(ptr noundef %0, i1 noundef zeroext %1) #2 {
  %3 = alloca ptr, align 8
  %4 = alloca i8, align 1
  %5 = alloca ptr, align 8
  store ptr %0, ptr %3, align 8
  %6 = zext i1 %1 to i8
  store i8 %6, ptr %4, align 1
  call void @llvm.lifetime.start.p0(i64 8, ptr %5) #9
  %7 = load ptr, ptr %3, align 8
  %8 = load i8, ptr %4, align 1, !range !6, !noundef !7
  %9 = trunc i8 %8 to i1
  %10 = call ptr @nwk_key_storage_get_entry_by_key(ptr noundef %7, i1 noundef zeroext %9)
  store ptr %10, ptr %5, align 8
  %11 = load ptr, ptr %5, align 8
  %12 = icmp ne ptr %11, null
  br i1 %12, label %13, label %16

13:                                               ; preds = %2
  %14 = load ptr, ptr %5, align 8
  %15 = getelementptr inbounds nuw %struct.nwk_key_entry_s, ptr %14, i32 0, i32 4
  store i8 0, ptr %15, align 1
  br label %16

16:                                               ; preds = %13, %2
  call void @llvm.lifetime.end.p0(i64 8, ptr %5) #9
  ret void
}