; Function Attrs: nofree nounwind null_pointer_is_valid sspstrong memory(readwrite, argmem: read, inaccessiblemem: none) uwtable
define hidden void @nwk_key_storage_release_entry(ptr noundef readonly captures(none) %0, i1 noundef zeroext %1) local_unnamed_addr #5 {
  %3 = zext i1 %1 to i8
  br label %4

4:                                                ; preds = %15, %2
  %indvars.iv.i = phi i64 [ 0, %2 ], [ %indvars.iv.next.i, %15 ]
  %5 = getelementptr [64 x %struct.nwk_key_entry_s], ptr @nwk_key_storage, i64 0, i64 %indvars.iv.i
  %6 = getelementptr inbounds nuw i8, ptr %5, i64 33
  %7 = load i8, ptr %6, align 1, !range !8, !noundef !9
  %8 = trunc nuw i8 %7 to i1
  br i1 %8, label %9, label %15

9:                                                ; preds = %4
  %10 = getelementptr inbounds nuw i8, ptr %5, i64 32
  %11 = load i8, ptr %10, align 8, !range !8, !noundef !9
  %12 = icmp eq i8 %11, %3
  br i1 %12, label %13, label %15

13:                                               ; preds = %9
  %bcmp.i = tail call i32 @bcmp(ptr noundef dereferenceable(16) %5, ptr noundef readonly dereferenceable(16) %0, i64 16)
  %14 = icmp eq i32 %bcmp.i, 0
  br i1 %14, label %nwk_key_storage_get_entry_by_key.exit, label %15

15:                                               ; preds = %13, %9, %4
  %indvars.iv.next.i = add nuw nsw i64 %indvars.iv.i, 1
  %exitcond.not.i = icmp eq i64 %indvars.iv.next.i, 64
  br i1 %exitcond.not.i, label %nwk_key_storage_get_entry_by_key.exit.thread, label %4, !llvm.loop !13

nwk_key_storage_get_entry_by_key.exit:            ; preds = %13
  %.not = icmp eq ptr %5, null
  br i1 %.not, label %nwk_key_storage_get_entry_by_key.exit.thread, label %16

16:                                               ; preds = %nwk_key_storage_get_entry_by_key.exit
  %17 = getelementptr inbounds nuw i8, ptr %5, i64 33
  store i8 0, ptr %17, align 1
  br label %nwk_key_storage_get_entry_by_key.exit.thread

nwk_key_storage_get_entry_by_key.exit.thread:     ; preds = %15, %16, %nwk_key_storage_get_entry_by_key.exit
  ret void
}